target datalayout = "e-m:e-p270:32:32-p271:32:32-p272:64:64-i64:64-i128:128-f80:128-n8:16:32:64-S128"
target triple = "x86_64-unknown-linux-gnu"

%class.buffer = type { ptr, i32, i32, [16 x %"union.std::aligned_storage<8, 8>::type"] }
%"union.std::aligned_storage<8, 8>::type" = type { [8 x i8] }

; Function Attrs: mustprogress nounwind uwtable
define linkonce_odr hidden noundef nonnull align 8 dereferenceable(8) ptr @_ZN6bufferIPcLb0ELj16EE3getEj(ptr noundef nonnull align 8 dereferenceable(144) %this, i32 noundef %idx) #5 comdat align 2 {
entry:
  %this.addr = alloca ptr, align 8
  %idx.addr = alloca i32, align 4
  store ptr %this, ptr %this.addr, align 8
  store i32 %idx, ptr %idx.addr, align 4
  %this1 = load ptr, ptr %this.addr, align 8
  %m_buffer = getelementptr inbounds %class.buffer, ptr %this1, i32 0, i32 0
  %0 = load ptr, ptr %m_buffer, align 8
  %1 = load i32, ptr %idx.addr, align 4
  %idxprom = zext i32 %1 to i64
  %arrayidx = getelementptr inbounds ptr, ptr %0, i64 %idxprom
  ret ptr %arrayidx
}

; Function Attrs: mustprogress nounwind uwtable
define linkonce_odr hidden noundef i32 @_ZNK6bufferIPcLb0ELj16EE4sizeEv(ptr noundef nonnull align 8 dereferenceable(144) %this) #5 comdat align 2 {
entry:
  %this.addr = alloca ptr, align 8
  store ptr %this, ptr %this.addr, align 8
  %this1 = load ptr, ptr %this.addr, align 8
  %m_pos = getelementptr inbounds %class.buffer, ptr %this1, i32 0, i32 1
  %0 = load i32, ptr %m_pos, align 8
  ret i32 %0
}

; Function Attrs: mustprogress uwtable
define hidden noundef i32 @_Z11get_max_lenR10ptr_bufferIcLj16EE(ptr noundef nonnull align 8 dereferenceable(144) %keys) #4 {
entry:
  %keys.addr = alloca ptr, align 8
  %max = alloca i32, align 4
  %i = alloca i32, align 4
  %k = alloca ptr, align 8
  %curr = alloca i32, align 4
  store ptr %keys, ptr %keys.addr, align 8
  store i32 0, ptr %max, align 4
  store i32 0, ptr %i, align 4
  br label %for.cond

for.cond:                                         ; preds = %for.inc, %entry
  %0 = load i32, ptr %i, align 4
  %1 = load ptr, ptr %keys.addr, align 8
  %call = call noundef i32 @_ZNK6bufferIPcLb0ELj16EE4sizeEv(ptr noundef nonnull align 8 dereferenceable(144) %1)
  %cmp = icmp ult i32 %0, %call
  br i1 %cmp, label %for.body, label %for.end

for.body:                                         ; preds = %for.cond
  %2 = load ptr, ptr %keys.addr, align 8
  %3 = load i32, ptr %i, align 4
  %call1 = call noundef nonnull align 8 dereferenceable(8) ptr @_ZN6bufferIPcLb0ELj16EE3getEj(ptr noundef nonnull align 8 dereferenceable(144) %2, i32 noundef %3)
  %4 = load ptr, ptr %call1, align 8
  store ptr %4, ptr %k, align 8
  %5 = load ptr, ptr %k, align 8
  %6 = load i8, ptr %5, align 1
  %conv = sext i8 %6 to i32
  %cmp2 = icmp eq i32 %conv, 58
  br i1 %cmp2, label %if.then, label %if.end

if.then:                                          ; preds = %for.body
  %7 = load ptr, ptr %k, align 8
  %incdec.ptr = getelementptr inbounds i8, ptr %7, i32 1
  store ptr %incdec.ptr, ptr %k, align 8
  br label %if.end

if.end:                                           ; preds = %if.then, %for.body
  %8 = load ptr, ptr %k, align 8
  %call3 = call i64 @strlen(ptr noundef %8) #15
  %conv4 = trunc i64 %call3 to i32
  store i32 %conv4, ptr %curr, align 4
  %9 = load i32, ptr %curr, align 4
  %10 = load i32, ptr %max, align 4
  %cmp5 = icmp ugt i32 %9, %10
  br i1 %cmp5, label %if.then6, label %if.end7

if.then6:                                         ; preds = %if.end
  %11 = load i32, ptr %curr, align 4
  store i32 %11, ptr %max, align 4
  br label %if.end7

if.end7:                                          ; preds = %if.then6, %if.end
  br label %for.inc

for.inc:                                          ; preds = %if.end7
  %12 = load i32, ptr %i, align 4
  %inc = add i32 %12, 1
  store i32 %inc, ptr %i, align 4
  br label %for.cond, !llvm.loop !7

for.end:                                          ; preds = %for.cond
  %13 = load i32, ptr %max, align 4
  ret i32 %13
}