; Function Attrs: mustprogress nofree nounwind willreturn memory(read, inaccessiblemem: none) uwtable
define hidden noundef i32 @_Z11get_max_lenR10ptr_bufferIcLj16EE(ptr nocapture noundef nonnull readonly align 8 dereferenceable(144) %keys) local_unnamed_addr #5 {
entry:
  %m_pos.i = getelementptr inbounds i8, ptr %keys, i64 8
  %0 = load i32, ptr %m_pos.i, align 8
  %cmp8.not = icmp eq i32 %0, 0
  br i1 %cmp8.not, label %for.end, label %for.body.lr.ph

for.body.lr.ph:                                   ; preds = %entry
  %1 = load ptr, ptr %keys, align 8
  %wide.trip.count = zext i32 %0 to i64
  br label %for.body

for.body:                                         ; preds = %for.body.lr.ph, %for.body
  %indvars.iv = phi i64 [ 0, %for.body.lr.ph ], [ %indvars.iv.next, %for.body ]
  %max.010 = phi i32 [ 0, %for.body.lr.ph ], [ %max.1, %for.body ]
  %arrayidx.i = getelementptr inbounds ptr, ptr %1, i64 %indvars.iv
  %2 = load ptr, ptr %arrayidx.i, align 8
  %3 = load i8, ptr %2, align 1
  %cmp2 = icmp eq i8 %3, 58
  %spec.select.idx = zext i1 %cmp2 to i64
  %spec.select = getelementptr inbounds i8, ptr %2, i64 %spec.select.idx
  %call3 = tail call i64 @strlen(ptr noundef nonnull dereferenceable(1) %spec.select) #18
  %conv4 = trunc i64 %call3 to i32
  %max.1 = tail call i32 @llvm.umax.i32(i32 %max.010, i32 %conv4)
  %indvars.iv.next = add nuw nsw i64 %indvars.iv, 1
  %exitcond.not = icmp eq i64 %indvars.iv.next, %wide.trip.count
  br i1 %exitcond.not, label %for.end, label %for.body, !llvm.loop !7

for.end:                                          ; preds = %for.body, %entry
  %max.0.lcssa = phi i32 [ 0, %entry ], [ %max.1, %for.body ]
  ret i32 %max.0.lcssa
}